; Function Attrs: nounwind uwtable
define hidden i32 @SDL_GetRendererProperties_REAL(ptr noundef %0) local_unnamed_addr #0 {
  %2 = tail call zeroext i1 @SDL_ObjectValid(ptr noundef %0, i32 noundef 2) #15
  br i1 %2, label %5, label %3

3:                                                ; preds = %1
  %4 = tail call zeroext i1 (ptr, ...) @SDL_SetError_REAL(ptr noundef nonnull @.str.2, ptr noundef nonnull @.str.5) #15
  br label %17

5:                                                ; preds = %1
  %6 = getelementptr inbounds nuw i8, ptr %0, i64 688
  %7 = load i8, ptr %6, align 8, !range !3, !noundef !4
  %8 = trunc nuw i8 %7 to i1
  br i1 %8, label %9, label %11

9:                                                ; preds = %5
  %10 = tail call zeroext i1 (ptr, ...) @SDL_SetError_REAL(ptr noundef nonnull @.str.29) #15
  br label %17

11:                                               ; preds = %5
  %12 = getelementptr inbounds nuw i8, ptr %0, i64 672
  %13 = load i32, ptr %12, align 8
  %14 = icmp eq i32 %13, 0
  br i1 %14, label %15, label %17

15:                                               ; preds = %11
  %16 = tail call i32 @SDL_CreateProperties_REAL() #15
  store i32 %16, ptr %12, align 8
  br label %17

17:                                               ; preds = %11, %15, %9, %3
  %.0 = phi i32 [ 0, %9 ], [ 0, %3 ], [ %16, %15 ], [ %13, %11 ]
  ret i32 %.0
}